target datalayout = "e-m:e-p270:32:32-p271:32:32-p272:64:64-i64:64-i128:128-f80:128-n8:16:32:64-S128"
target triple = "x86_64-pc-linux-gnu"

%struct.asn1_string_st = type { i32, i32, ptr, i64 }
%struct.ecx_key_st = type { ptr, ptr, i8, [57 x i8], ptr, i64, i32, %struct.CRYPTO_REF_COUNT }
%struct.CRYPTO_REF_COUNT = type { i32 }

@.str = private unnamed_addr constant [68 x i8] c"../openssl/providers/implementations/encode_decode/encode_key2any.c\00", align 1
@__func__.ecx_pki_priv_to_der = private unnamed_addr constant [20 x i8] c"ecx_pki_priv_to_der\00", align 1

; Function Attrs: nounwind uwtable
define internal i32 @ecx_pki_priv_to_der(ptr noundef %0, ptr noundef %1, ptr noundef %2) #0 {
  %4 = alloca i32, align 4
  %5 = alloca ptr, align 8
  %6 = alloca ptr, align 8
  %7 = alloca ptr, align 8
  %8 = alloca ptr, align 8
  %9 = alloca %struct.asn1_string_st, align 8
  %10 = alloca i32, align 4
  %11 = alloca i32, align 4
  store ptr %0, ptr %5, align 8, !tbaa !3
  store ptr %1, ptr %6, align 8, !tbaa !40
  store ptr %2, ptr %7, align 8, !tbaa !3
  call void @llvm.lifetime.start.p0(i64 8, ptr %8) #4
  %12 = load ptr, ptr %5, align 8, !tbaa !3
  store ptr %12, ptr %8, align 8, !tbaa !59
  call void @llvm.lifetime.start.p0(i64 24, ptr %9) #4
  call void @llvm.lifetime.start.p0(i64 4, ptr %10) #4
  %13 = load ptr, ptr %8, align 8, !tbaa !59
  %14 = icmp eq ptr %13, null
  br i1 %14, label %20, label %15

15:                                               ; preds = %3
  %16 = load ptr, ptr %8, align 8, !tbaa !59
  %17 = getelementptr inbounds nuw %struct.ecx_key_st, ptr %16, i32 0, i32 4
  %18 = load ptr, ptr %17, align 8, !tbaa !61
  %19 = icmp eq ptr %18, null
  br i1 %19, label %20, label %21

20:                                               ; preds = %15, %3
  call void @ERR_new()
  call void @ERR_set_debug(ptr noundef @.str, i32 noundef 816, ptr noundef @__func__.ecx_pki_priv_to_der)
  call void (i32, i32, ptr, ...) @ERR_set_error(i32 noundef 57, i32 noundef 786690, ptr noundef null)
  store i32 0, ptr %4, align 4
  store i32 1, ptr %11, align 4
  br label %39

21:                                               ; preds = %15
  %22 = load ptr, ptr %8, align 8, !tbaa !59
  %23 = getelementptr inbounds nuw %struct.ecx_key_st, ptr %22, i32 0, i32 4
  %24 = load ptr, ptr %23, align 8, !tbaa !61
  %25 = getelementptr inbounds nuw %struct.asn1_string_st, ptr %9, i32 0, i32 2
  store ptr %24, ptr %25, align 8, !tbaa !64
  %26 = load ptr, ptr %8, align 8, !tbaa !59
  %27 = getelementptr inbounds nuw %struct.ecx_key_st, ptr %26, i32 0, i32 5
  %28 = load i64, ptr %27, align 8, !tbaa !65
  %29 = trunc i64 %28 to i32
  %30 = getelementptr inbounds nuw %struct.asn1_string_st, ptr %9, i32 0, i32 0
  store i32 %29, ptr %30, align 8, !tbaa !44
  %31 = getelementptr inbounds nuw %struct.asn1_string_st, ptr %9, i32 0, i32 3
  store i64 0, ptr %31, align 8, !tbaa !66
  %32 = load ptr, ptr %6, align 8, !tbaa !40
  %33 = call i32 @i2d_ASN1_OCTET_STRING(ptr noundef %9, ptr noundef %32)
  store i32 %33, ptr %10, align 4, !tbaa !25
  %34 = load i32, ptr %10, align 4, !tbaa !25
  %35 = icmp slt i32 %34, 0
  br i1 %35, label %36, label %37

36:                                               ; preds = %21
  call void @ERR_new()
  call void @ERR_set_debug(ptr noundef @.str, i32 noundef 826, ptr noundef @__func__.ecx_pki_priv_to_der)
  call void (i32, i32, ptr, ...) @ERR_set_error(i32 noundef 57, i32 noundef 524301, ptr noundef null)
  store i32 0, ptr %4, align 4
  store i32 1, ptr %11, align 4
  br label %39

37:                                               ; preds = %21
  %38 = load i32, ptr %10, align 4, !tbaa !25
  store i32 %38, ptr %4, align 4
  store i32 1, ptr %11, align 4
  br label %39

39:                                               ; preds = %37, %36, %20
  call void @llvm.lifetime.end.p0(i64 4, ptr %10) #4
  call void @llvm.lifetime.end.p0(i64 24, ptr %9) #4
  call void @llvm.lifetime.end.p0(i64 8, ptr %8) #4
  %40 = load i32, ptr %4, align 4
  ret i32 %40
}