; Function Attrs: nounwind uwtable
define internal range(i32 0, -2147483648) i32 @ecx_pki_priv_to_der(ptr noundef readonly captures(address_is_null) %0, ptr noundef %1, ptr readnone captures(none) %2) #0 {
  %4 = alloca %struct.asn1_string_st, align 8
  call void @llvm.lifetime.start.p0(i64 24, ptr nonnull %4) #5
  %5 = icmp eq ptr %0, null
  br i1 %5, label %10, label %6

6:                                                ; preds = %3
  %7 = getelementptr inbounds nuw i8, ptr %0, i64 80
  %8 = load ptr, ptr %7, align 8, !tbaa !28
  %9 = icmp eq ptr %8, null
  br i1 %9, label %10, label %11

10:                                               ; preds = %6, %3
  tail call void @ERR_new() #5
  tail call void @ERR_set_debug(ptr noundef nonnull @.str, i32 noundef 816, ptr noundef nonnull @__func__.ecx_pki_priv_to_der) #5
  tail call void (i32, i32, ptr, ...) @ERR_set_error(i32 noundef 57, i32 noundef 786690, ptr noundef null) #5
  br label %20

11:                                               ; preds = %6
  %12 = getelementptr inbounds nuw i8, ptr %4, i64 8
  store ptr %8, ptr %12, align 8, !tbaa !32
  %13 = getelementptr inbounds nuw i8, ptr %0, i64 88
  %14 = load i64, ptr %13, align 8, !tbaa !33
  %15 = trunc i64 %14 to i32
  store i32 %15, ptr %4, align 8, !tbaa !25
  %16 = getelementptr inbounds nuw i8, ptr %4, i64 16
  store i64 0, ptr %16, align 8, !tbaa !34
  %17 = call i32 @i2d_ASN1_OCTET_STRING(ptr noundef nonnull %4, ptr noundef %1) #5
  %18 = icmp slt i32 %17, 0
  br i1 %18, label %19, label %20

19:                                               ; preds = %11
  call void @ERR_new() #5
  call void @ERR_set_debug(ptr noundef nonnull @.str, i32 noundef 826, ptr noundef nonnull @__func__.ecx_pki_priv_to_der) #5
  call void (i32, i32, ptr, ...) @ERR_set_error(i32 noundef 57, i32 noundef 524301, ptr noundef null) #5
  br label %20

20:                                               ; preds = %11, %19, %10
  %.0 = phi i32 [ 0, %10 ], [ 0, %19 ], [ %17, %11 ]
  call void @llvm.lifetime.end.p0(i64 24, ptr nonnull %4) #5
  ret i32 %.0
}